; Function Attrs: mustprogress uwtable
define void @_ZN16FunnelStatistics22emitApplyDisplayFilterEv(ptr noundef nonnull align 8 dereferenceable(88) %0) local_unnamed_addr #0 align 2 personality ptr @__gxx_personality_v0 {
  %2 = alloca %class.QString, align 8
  %3 = getelementptr inbounds i8, ptr %0, i64 64
  %4 = load ptr, ptr %3, align 8
  store ptr %4, ptr %2, align 8
  %5 = getelementptr inbounds i8, ptr %2, i64 8
  %6 = getelementptr inbounds i8, ptr %0, i64 72
  %7 = load ptr, ptr %6, align 8
  store ptr %7, ptr %5, align 8
  %8 = getelementptr inbounds i8, ptr %2, i64 16
  %9 = getelementptr inbounds i8, ptr %0, i64 80
  %10 = load i64, ptr %9, align 8
  store i64 %10, ptr %8, align 8
  %.not.i.i.i = icmp eq ptr %4, null
  br i1 %.not.i.i.i, label %_ZN7QStringC2ERKS_.exit, label %11

11:                                               ; preds = %1
  %12 = atomicrmw add ptr %4, i32 1 seq_cst, align 4
  br label %_ZN7QStringC2ERKS_.exit

_ZN7QStringC2ERKS_.exit:                          ; preds = %1, %11
  invoke void @_ZN16FunnelStatistics16setDisplayFilterE7QStringN12FilterAction6ActionENS1_10ActionTypeE(ptr noundef nonnull align 8 dereferenceable(88) %0, ptr noundef nonnull %2, i32 noundef 0, i32 noundef 0)
          to label %13 unwind label %18

13:                                               ; preds = %_ZN7QStringC2ERKS_.exit
  %14 = load ptr, ptr %2, align 8
  %.not.i.i.i2 = icmp eq ptr %14, null
  br i1 %.not.i.i.i2, label %_ZN7QStringD2Ev.exit, label %_ZN17QArrayDataPointerIDsE5derefEv.exit.i.i

_ZN17QArrayDataPointerIDsE5derefEv.exit.i.i:      ; preds = %13
  %15 = atomicrmw sub ptr %14, i32 1 seq_cst, align 4
  %.not.i.i = icmp eq i32 %15, 1
  br i1 %.not.i.i, label %16, label %_ZN7QStringD2Ev.exit

16:                                               ; preds = %_ZN17QArrayDataPointerIDsE5derefEv.exit.i.i
  %17 = load ptr, ptr %2, align 8
  call void @_ZN10QArrayData10deallocateEPS_xx(ptr noundef %17, i64 noundef 2, i64 noundef 8) #24
  br label %_ZN7QStringD2Ev.exit

_ZN7QStringD2Ev.exit:                             ; preds = %13, %_ZN17QArrayDataPointerIDsE5derefEv.exit.i.i, %16
  ret void

18:                                               ; preds = %_ZN7QStringC2ERKS_.exit
  %19 = landingpad { ptr, i32 }
          cleanup
  %20 = load ptr, ptr %2, align 8
  %.not.i.i.i3 = icmp eq ptr %20, null
  br i1 %.not.i.i.i3, label %_ZN7QStringD2Ev.exit6, label %_ZN17QArrayDataPointerIDsE5derefEv.exit.i.i4

_ZN17QArrayDataPointerIDsE5derefEv.exit.i.i4:     ; preds = %18
  %21 = atomicrmw sub ptr %20, i32 1 seq_cst, align 4
  %.not.i.i5 = icmp eq i32 %21, 1
  br i1 %.not.i.i5, label %22, label %_ZN7QStringD2Ev.exit6

22:                                               ; preds = %_ZN17QArrayDataPointerIDsE5derefEv.exit.i.i4
  %23 = load ptr, ptr %2, align 8
  call void @_ZN10QArrayData10deallocateEPS_xx(ptr noundef %23, i64 noundef 2, i64 noundef 8) #24
  br label %_ZN7QStringD2Ev.exit6

_ZN7QStringD2Ev.exit6:                            ; preds = %18, %_ZN17QArrayDataPointerIDsE5derefEv.exit.i.i4, %22
  resume { ptr, i32 } %19
}